target datalayout = "e-m:e-p270:32:32-p271:32:32-p272:64:64-i64:64-i128:128-f80:128-n8:16:32:64-S128"
target triple = "x86_64-pc-linux-gnu"

%struct.ffc_params_st = type { ptr, ptr, ptr, ptr, ptr, i64, i32, i32, i32, i32, i32, ptr, ptr, i32 }

@.str.18 = private unnamed_addr constant [11 x i8] c"GROUP: %s\0A\00", align 1
@.str.19 = private unnamed_addr constant [6 x i8] c"P:   \00", align 1
@.str.20 = private unnamed_addr constant [6 x i8] c"Q:   \00", align 1
@.str.21 = private unnamed_addr constant [6 x i8] c"G:   \00", align 1
@.str.22 = private unnamed_addr constant [6 x i8] c"J:   \00", align 1
@.str.23 = private unnamed_addr constant [6 x i8] c"SEED:\00", align 1
@.str.24 = private unnamed_addr constant [12 x i8] c"gindex: %d\0A\00", align 1
@.str.25 = private unnamed_addr constant [14 x i8] c"pcounter: %d\0A\00", align 1
@.str.26 = private unnamed_addr constant [7 x i8] c"h: %d\0A\00", align 1

; Function Attrs: nounwind uwtable
define i32 @ossl_bio_print_ffc_params(ptr noundef %0, ptr noundef %1) #0 {
  %3 = alloca i32, align 4
  %4 = alloca ptr, align 8
  %5 = alloca ptr, align 8
  %6 = alloca ptr, align 8
  %7 = alloca ptr, align 8
  %8 = alloca i32, align 4
  store ptr %0, ptr %4, align 8, !tbaa !8
  store ptr %1, ptr %5, align 8, !tbaa !90
  %9 = load ptr, ptr %5, align 8, !tbaa !90
  %10 = getelementptr inbounds nuw %struct.ffc_params_st, ptr %9, i32 0, i32 7
  %11 = load i32, ptr %10, align 4, !tbaa !92
  %12 = icmp ne i32 %11, 0
  br i1 %12, label %13, label %32

13:                                               ; preds = %2
  call void @llvm.lifetime.start.p0(i64 8, ptr %6) #8
  %14 = load ptr, ptr %5, align 8, !tbaa !90
  %15 = getelementptr inbounds nuw %struct.ffc_params_st, ptr %14, i32 0, i32 7
  %16 = load i32, ptr %15, align 4, !tbaa !92
  %17 = call ptr @ossl_ffc_uid_to_dh_named_group(i32 noundef %16)
  store ptr %17, ptr %6, align 8, !tbaa !94
  call void @llvm.lifetime.start.p0(i64 8, ptr %7) #8
  %18 = load ptr, ptr %6, align 8, !tbaa !94
  %19 = call ptr @ossl_ffc_named_group_get_name(ptr noundef %18)
  store ptr %19, ptr %7, align 8, !tbaa !36
  %20 = load ptr, ptr %7, align 8, !tbaa !36
  %21 = icmp eq ptr %20, null
  br i1 %21, label %22, label %23

22:                                               ; preds = %13
  store i32 2, ptr %8, align 4
  br label %30

23:                                               ; preds = %13
  %24 = load ptr, ptr %4, align 8, !tbaa !8
  %25 = load ptr, ptr %7, align 8, !tbaa !36
  %26 = call i32 (ptr, ptr, ...) @BIO_printf(ptr noundef %24, ptr noundef @.str.18, ptr noundef %25)
  %27 = icmp sle i32 %26, 0
  br i1 %27, label %28, label %29

28:                                               ; preds = %23
  store i32 2, ptr %8, align 4
  br label %30

29:                                               ; preds = %23
  store i32 1, ptr %3, align 4
  store i32 1, ptr %8, align 4
  br label %30

30:                                               ; preds = %28, %22, %29
  call void @llvm.lifetime.end.p0(i64 8, ptr %7) #8
  call void @llvm.lifetime.end.p0(i64 8, ptr %6) #8
  %31 = load i32, ptr %8, align 4
  switch i32 %31, label %139 [
    i32 1, label %137
    i32 2, label %136
  ]

32:                                               ; preds = %2
  %33 = load ptr, ptr %4, align 8, !tbaa !8
  %34 = load ptr, ptr %5, align 8, !tbaa !90
  %35 = getelementptr inbounds nuw %struct.ffc_params_st, ptr %34, i32 0, i32 0
  %36 = load ptr, ptr %35, align 8, !tbaa !96
  %37 = call i32 @ossl_bio_print_labeled_bignum(ptr noundef %33, ptr noundef @.str.19, ptr noundef %36)
  %38 = icmp ne i32 %37, 0
  br i1 %38, label %40, label %39

39:                                               ; preds = %32
  br label %136

40:                                               ; preds = %32
  %41 = load ptr, ptr %5, align 8, !tbaa !90
  %42 = getelementptr inbounds nuw %struct.ffc_params_st, ptr %41, i32 0, i32 1
  %43 = load ptr, ptr %42, align 8, !tbaa !97
  %44 = icmp ne ptr %43, null
  br i1 %44, label %45, label %54

45:                                               ; preds = %40
  %46 = load ptr, ptr %4, align 8, !tbaa !8
  %47 = load ptr, ptr %5, align 8, !tbaa !90
  %48 = getelementptr inbounds nuw %struct.ffc_params_st, ptr %47, i32 0, i32 1
  %49 = load ptr, ptr %48, align 8, !tbaa !97
  %50 = call i32 @ossl_bio_print_labeled_bignum(ptr noundef %46, ptr noundef @.str.20, ptr noundef %49)
  %51 = icmp ne i32 %50, 0
  br i1 %51, label %53, label %52

52:                                               ; preds = %45
  br label %136

53:                                               ; preds = %45
  br label %54

54:                                               ; preds = %53, %40
  %55 = load ptr, ptr %4, align 8, !tbaa !8
  %56 = load ptr, ptr %5, align 8, !tbaa !90
  %57 = getelementptr inbounds nuw %struct.ffc_params_st, ptr %56, i32 0, i32 2
  %58 = load ptr, ptr %57, align 8, !tbaa !98
  %59 = call i32 @ossl_bio_print_labeled_bignum(ptr noundef %55, ptr noundef @.str.21, ptr noundef %58)
  %60 = icmp ne i32 %59, 0
  br i1 %60, label %62, label %61

61:                                               ; preds = %54
  br label %136

62:                                               ; preds = %54
  %63 = load ptr, ptr %5, align 8, !tbaa !90
  %64 = getelementptr inbounds nuw %struct.ffc_params_st, ptr %63, i32 0, i32 3
  %65 = load ptr, ptr %64, align 8, !tbaa !99
  %66 = icmp ne ptr %65, null
  br i1 %66, label %67, label %76

67:                                               ; preds = %62
  %68 = load ptr, ptr %4, align 8, !tbaa !8
  %69 = load ptr, ptr %5, align 8, !tbaa !90
  %70 = getelementptr inbounds nuw %struct.ffc_params_st, ptr %69, i32 0, i32 3
  %71 = load ptr, ptr %70, align 8, !tbaa !99
  %72 = call i32 @ossl_bio_print_labeled_bignum(ptr noundef %68, ptr noundef @.str.22, ptr noundef %71)
  %73 = icmp ne i32 %72, 0
  br i1 %73, label %75, label %74

74:                                               ; preds = %67
  br label %136

75:                                               ; preds = %67
  br label %76

76:                                               ; preds = %75, %62
  %77 = load ptr, ptr %5, align 8, !tbaa !90
  %78 = getelementptr inbounds nuw %struct.ffc_params_st, ptr %77, i32 0, i32 4
  %79 = load ptr, ptr %78, align 8, !tbaa !100
  %80 = icmp ne ptr %79, null
  br i1 %80, label %81, label %93

81:                                               ; preds = %76
  %82 = load ptr, ptr %4, align 8, !tbaa !8
  %83 = load ptr, ptr %5, align 8, !tbaa !90
  %84 = getelementptr inbounds nuw %struct.ffc_params_st, ptr %83, i32 0, i32 4
  %85 = load ptr, ptr %84, align 8, !tbaa !100
  %86 = load ptr, ptr %5, align 8, !tbaa !90
  %87 = getelementptr inbounds nuw %struct.ffc_params_st, ptr %86, i32 0, i32 5
  %88 = load i64, ptr %87, align 8, !tbaa !101
  %89 = call i32 @ossl_bio_print_labeled_buf(ptr noundef %82, ptr noundef @.str.23, ptr noundef %85, i64 noundef %88)
  %90 = icmp ne i32 %89, 0
  br i1 %90, label %92, label %91

91:                                               ; preds = %81
  br label %136

92:                                               ; preds = %81
  br label %93

93:                                               ; preds = %92, %76
  %94 = load ptr, ptr %5, align 8, !tbaa !90
  %95 = getelementptr inbounds nuw %struct.ffc_params_st, ptr %94, i32 0, i32 8
  %96 = load i32, ptr %95, align 8, !tbaa !102
  %97 = icmp ne i32 %96, -1
  br i1 %97, label %98, label %107

98:                                               ; preds = %93
  %99 = load ptr, ptr %4, align 8, !tbaa !8
  %100 = load ptr, ptr %5, align 8, !tbaa !90
  %101 = getelementptr inbounds nuw %struct.ffc_params_st, ptr %100, i32 0, i32 8
  %102 = load i32, ptr %101, align 8, !tbaa !102
  %103 = call i32 (ptr, ptr, ...) @BIO_printf(ptr noundef %99, ptr noundef @.str.24, i32 noundef %102)
  %104 = icmp sle i32 %103, 0
  br i1 %104, label %105, label %106

105:                                              ; preds = %98
  br label %136

106:                                              ; preds = %98
  br label %107

107:                                              ; preds = %106, %93
  %108 = load ptr, ptr %5, align 8, !tbaa !90
  %109 = getelementptr inbounds nuw %struct.ffc_params_st, ptr %108, i32 0, i32 6
  %110 = load i32, ptr %109, align 8, !tbaa !103
  %111 = icmp ne i32 %110, -1
  br i1 %111, label %112, label %121

112:                                              ; preds = %107
  %113 = load ptr, ptr %4, align 8, !tbaa !8
  %114 = load ptr, ptr %5, align 8, !tbaa !90
  %115 = getelementptr inbounds nuw %struct.ffc_params_st, ptr %114, i32 0, i32 6
  %116 = load i32, ptr %115, align 8, !tbaa !103
  %117 = call i32 (ptr, ptr, ...) @BIO_printf(ptr noundef %113, ptr noundef @.str.25, i32 noundef %116)
  %118 = icmp sle i32 %117, 0
  br i1 %118, label %119, label %120

119:                                              ; preds = %112
  br label %136

120:                                              ; preds = %112
  br label %121

121:                                              ; preds = %120, %107
  %122 = load ptr, ptr %5, align 8, !tbaa !90
  %123 = getelementptr inbounds nuw %struct.ffc_params_st, ptr %122, i32 0, i32 9
  %124 = load i32, ptr %123, align 4, !tbaa !104
  %125 = icmp ne i32 %124, 0
  br i1 %125, label %126, label %135

126:                                              ; preds = %121
  %127 = load ptr, ptr %4, align 8, !tbaa !8
  %128 = load ptr, ptr %5, align 8, !tbaa !90
  %129 = getelementptr inbounds nuw %struct.ffc_params_st, ptr %128, i32 0, i32 9
  %130 = load i32, ptr %129, align 4, !tbaa !104
  %131 = call i32 (ptr, ptr, ...) @BIO_printf(ptr noundef %127, ptr noundef @.str.26, i32 noundef %130)
  %132 = icmp sle i32 %131, 0
  br i1 %132, label %133, label %134

133:                                              ; preds = %126
  br label %136

134:                                              ; preds = %126
  br label %135

135:                                              ; preds = %134, %121
  store i32 1, ptr %3, align 4
  br label %137

136:                                              ; preds = %133, %119, %105, %91, %74, %61, %52, %39, %30
  store i32 0, ptr %3, align 4
  br label %137

137:                                              ; preds = %136, %135, %30
  %138 = load i32, ptr %3, align 4
  ret i32 %138

139:                                              ; preds = %30
  unreachable
}