; Function Attrs: nounwind uwtable
define range(i32 0, 2) i32 @ossl_bio_print_ffc_params(ptr noundef %0, ptr noundef readonly captures(none) %1) local_unnamed_addr #0 {
  %3 = getelementptr inbounds nuw i8, ptr %1, i64 52
  %4 = load i32, ptr %3, align 4, !tbaa !67
  %.not = icmp eq i32 %4, 0
  br i1 %.not, label %12, label %5

5:                                                ; preds = %2
  %6 = tail call ptr @ossl_ffc_uid_to_dh_named_group(i32 noundef %4) #8
  %7 = tail call ptr @ossl_ffc_named_group_get_name(ptr noundef %6) #8
  %8 = icmp eq ptr %7, null
  br i1 %8, label %.thread, label %9

9:                                                ; preds = %5
  %10 = tail call i32 (ptr, ptr, ...) @BIO_printf(ptr noundef %0, ptr noundef nonnull @.str.18, ptr noundef nonnull %7) #8
  %11 = icmp slt i32 %10, 1
  br i1 %11, label %.thread, label %54

12:                                               ; preds = %2
  %13 = load ptr, ptr %1, align 8, !tbaa !70
  %14 = tail call i32 @ossl_bio_print_labeled_bignum(ptr noundef %0, ptr noundef nonnull @.str.19, ptr noundef %13)
  %.not39 = icmp eq i32 %14, 0
  br i1 %.not39, label %.thread, label %15

15:                                               ; preds = %12
  %16 = getelementptr inbounds nuw i8, ptr %1, i64 8
  %17 = load ptr, ptr %16, align 8, !tbaa !71
  %.not40 = icmp eq ptr %17, null
  br i1 %.not40, label %20, label %18

18:                                               ; preds = %15
  %19 = tail call i32 @ossl_bio_print_labeled_bignum(ptr noundef %0, ptr noundef nonnull @.str.20, ptr noundef nonnull %17)
  %.not41 = icmp eq i32 %19, 0
  br i1 %.not41, label %.thread, label %20

20:                                               ; preds = %18, %15
  %21 = getelementptr inbounds nuw i8, ptr %1, i64 16
  %22 = load ptr, ptr %21, align 8, !tbaa !72
  %23 = tail call i32 @ossl_bio_print_labeled_bignum(ptr noundef %0, ptr noundef nonnull @.str.21, ptr noundef %22)
  %.not42 = icmp eq i32 %23, 0
  br i1 %.not42, label %.thread, label %24

24:                                               ; preds = %20
  %25 = getelementptr inbounds nuw i8, ptr %1, i64 24
  %26 = load ptr, ptr %25, align 8, !tbaa !73
  %.not43 = icmp eq ptr %26, null
  br i1 %.not43, label %29, label %27

27:                                               ; preds = %24
  %28 = tail call i32 @ossl_bio_print_labeled_bignum(ptr noundef %0, ptr noundef nonnull @.str.22, ptr noundef nonnull %26)
  %.not44 = icmp eq i32 %28, 0
  br i1 %.not44, label %.thread, label %29

29:                                               ; preds = %27, %24
  %30 = getelementptr inbounds nuw i8, ptr %1, i64 32
  %31 = load ptr, ptr %30, align 8, !tbaa !74
  %.not45 = icmp eq ptr %31, null
  br i1 %.not45, label %36, label %32

32:                                               ; preds = %29
  %33 = getelementptr inbounds nuw i8, ptr %1, i64 40
  %34 = load i64, ptr %33, align 8, !tbaa !75
  %35 = tail call i32 @ossl_bio_print_labeled_buf(ptr noundef %0, ptr noundef nonnull @.str.23, ptr noundef nonnull %31, i64 noundef %34)
  %.not46 = icmp eq i32 %35, 0
  br i1 %.not46, label %.thread, label %36

36:                                               ; preds = %32, %29
  %37 = getelementptr inbounds nuw i8, ptr %1, i64 56
  %38 = load i32, ptr %37, align 8, !tbaa !76
  %.not47 = icmp eq i32 %38, -1
  br i1 %.not47, label %42, label %39

39:                                               ; preds = %36
  %40 = tail call i32 (ptr, ptr, ...) @BIO_printf(ptr noundef %0, ptr noundef nonnull @.str.24, i32 noundef %38) #8
  %41 = icmp slt i32 %40, 1
  br i1 %41, label %.thread, label %42

42:                                               ; preds = %39, %36
  %43 = getelementptr inbounds nuw i8, ptr %1, i64 48
  %44 = load i32, ptr %43, align 8, !tbaa !77
  %.not48 = icmp eq i32 %44, -1
  br i1 %.not48, label %48, label %45

45:                                               ; preds = %42
  %46 = tail call i32 (ptr, ptr, ...) @BIO_printf(ptr noundef %0, ptr noundef nonnull @.str.25, i32 noundef %44) #8
  %47 = icmp slt i32 %46, 1
  br i1 %47, label %.thread, label %48

48:                                               ; preds = %45, %42
  %49 = getelementptr inbounds nuw i8, ptr %1, i64 60
  %50 = load i32, ptr %49, align 4, !tbaa !78
  %.not49 = icmp eq i32 %50, 0
  br i1 %.not49, label %54, label %51

51:                                               ; preds = %48
  %52 = tail call i32 (ptr, ptr, ...) @BIO_printf(ptr noundef %0, ptr noundef nonnull @.str.26, i32 noundef %50) #8
  %53 = icmp slt i32 %52, 1
  br i1 %53, label %.thread, label %54

.thread:                                          ; preds = %5, %9, %51, %45, %39, %32, %27, %20, %18, %12
  br label %54

54:                                               ; preds = %48, %51, %9, %.thread
  %.1 = phi i32 [ 0, %.thread ], [ 1, %9 ], [ 1, %51 ], [ 1, %48 ]
  ret i32 %.1
}